target datalayout = "e-m:e-p270:32:32-p271:32:32-p272:64:64-i64:64-i128:128-f80:128-n8:16:32:64-S128"
target triple = "x86_64-unknown-linux-gnu"

%"class.absl::lts_20230802::Status" = type { i64 }
%struct.grpc_closure = type { %union.anon, ptr, ptr, %union.anon.0 }
%union.anon = type { ptr }
%union.anon.0 = type { i64 }
%struct.grpc_transport_stream_op_batch = type { ptr, ptr, i8, %struct.grpc_handler_private_op_data }
%struct.grpc_handler_private_op_data = type { ptr, %struct.grpc_closure }
%struct.grpc_transport_stream_op_batch_payload = type { %struct.anon.2, %struct.anon.3, %struct.anon.4, %struct.anon.5, %struct.anon.6, %struct.anon.7, %struct.anon.8, ptr }
%struct.anon.2 = type { ptr }
%struct.anon.3 = type { ptr, ptr }
%struct.anon.4 = type <{ ptr, i32, i8, [3 x i8] }>
%struct.anon.5 = type { ptr, ptr, ptr }
%struct.anon.6 = type { ptr, ptr, ptr, ptr }
%struct.anon.7 = type { ptr, ptr, ptr }
%struct.anon.8 = type <{ %"class.absl::lts_20230802::Status", i8, [7 x i8] }>
%struct.made_transport_stream_op = type { %struct.grpc_closure, ptr, %struct.grpc_transport_stream_op_batch, %struct.grpc_transport_stream_op_batch_payload }

; Function Attrs: mustprogress nounwind uwtable
define linkonce_odr noundef i64 @_ZN4absl12lts_202308026Status16CodeToInlinedRepENS0_10StatusCodeE(i32 noundef %code) #5 comdat align 2 {
entry:
  %code.addr = alloca i32, align 4
  store i32 %code, ptr %code.addr, align 4
  %0 = load i32, ptr %code.addr, align 4
  %conv = sext i32 %0 to i64
  %shl = shl i64 %conv, 2
  ret i64 %shl
}

; Function Attrs: mustprogress uwtable
define linkonce_odr void @_ZN4absl12lts_202308026StatusC2Ev(ptr noundef nonnull align 8 dereferenceable(8) %this) unnamed_addr #4 comdat align 2 {
entry:
  %this.addr = alloca ptr, align 8
  store ptr %this, ptr %this.addr, align 8
  %this1 = load ptr, ptr %this.addr, align 8
  %rep_ = getelementptr inbounds %"class.absl::lts_20230802::Status", ptr %this1, i32 0, i32 0
  %call = call noundef i64 @_ZN4absl12lts_202308026Status16CodeToInlinedRepENS0_10StatusCodeE(i32 noundef 0)
  store i64 %call, ptr %rep_, align 8
  ret void
}

; Function Attrs: mustprogress uwtable
define linkonce_odr void @_ZN38grpc_transport_stream_op_batch_payloadUt5_C2Ev(ptr noundef nonnull align 8 dereferenceable(9) %this) unnamed_addr #4 comdat align 2 {
entry:
  %this.addr = alloca ptr, align 8
  store ptr %this, ptr %this.addr, align 8
  %this1 = load ptr, ptr %this.addr, align 8
  %cancel_error = getelementptr inbounds %struct.anon.8, ptr %this1, i32 0, i32 0
  call void @_ZN4absl12lts_202308026StatusC2Ev(ptr noundef nonnull align 8 dereferenceable(8) %cancel_error)
  %tarpit = getelementptr inbounds %struct.anon.8, ptr %this1, i32 0, i32 1
  store i8 0, ptr %tarpit, align 8
  ret void
}

; Function Attrs: mustprogress nounwind uwtable
define linkonce_odr void @_ZN38grpc_transport_stream_op_batch_payloadUt4_C2Ev(ptr noundef nonnull align 8 dereferenceable(24) %this) unnamed_addr #5 comdat align 2 {
entry:
  %this.addr = alloca ptr, align 8
  store ptr %this, ptr %this.addr, align 8
  %this1 = load ptr, ptr %this.addr, align 8
  %recv_trailing_metadata = getelementptr inbounds %struct.anon.7, ptr %this1, i32 0, i32 0
  store ptr null, ptr %recv_trailing_metadata, align 8
  %collect_stats = getelementptr inbounds %struct.anon.7, ptr %this1, i32 0, i32 1
  store ptr null, ptr %collect_stats, align 8
  %recv_trailing_metadata_ready = getelementptr inbounds %struct.anon.7, ptr %this1, i32 0, i32 2
  store ptr null, ptr %recv_trailing_metadata_ready, align 8
  ret void
}

; Function Attrs: mustprogress nounwind uwtable
define linkonce_odr void @_ZN38grpc_transport_stream_op_batch_payloadUt3_C2Ev(ptr noundef nonnull align 8 dereferenceable(32) %this) unnamed_addr #5 comdat align 2 {
entry:
  %this.addr = alloca ptr, align 8
  store ptr %this, ptr %this.addr, align 8
  %this1 = load ptr, ptr %this.addr, align 8
  %recv_message = getelementptr inbounds %struct.anon.6, ptr %this1, i32 0, i32 0
  store ptr null, ptr %recv_message, align 8
  %flags = getelementptr inbounds %struct.anon.6, ptr %this1, i32 0, i32 1
  store ptr null, ptr %flags, align 8
  %call_failed_before_recv_message = getelementptr inbounds %struct.anon.6, ptr %this1, i32 0, i32 2
  store ptr null, ptr %call_failed_before_recv_message, align 8
  %recv_message_ready = getelementptr inbounds %struct.anon.6, ptr %this1, i32 0, i32 3
  store ptr null, ptr %recv_message_ready, align 8
  ret void
}

; Function Attrs: mustprogress nounwind uwtable
define linkonce_odr void @_ZN38grpc_transport_stream_op_batch_payloadUt2_C2Ev(ptr noundef nonnull align 8 dereferenceable(24) %this) unnamed_addr #5 comdat align 2 {
entry:
  %this.addr = alloca ptr, align 8
  store ptr %this, ptr %this.addr, align 8
  %this1 = load ptr, ptr %this.addr, align 8
  %recv_initial_metadata = getelementptr inbounds %struct.anon.5, ptr %this1, i32 0, i32 0
  store ptr null, ptr %recv_initial_metadata, align 8
  %recv_initial_metadata_ready = getelementptr inbounds %struct.anon.5, ptr %this1, i32 0, i32 1
  store ptr null, ptr %recv_initial_metadata_ready, align 8
  %trailing_metadata_available = getelementptr inbounds %struct.anon.5, ptr %this1, i32 0, i32 2
  store ptr null, ptr %trailing_metadata_available, align 8
  ret void
}

; Function Attrs: mustprogress nounwind uwtable
define linkonce_odr void @_ZN38grpc_transport_stream_op_batch_payloadUt1_C2Ev(ptr noundef nonnull align 8 dereferenceable(13) %this) unnamed_addr #5 comdat align 2 {
entry:
  %this.addr = alloca ptr, align 8
  store ptr %this, ptr %this.addr, align 8
  %this1 = load ptr, ptr %this.addr, align 8
  %flags = getelementptr inbounds %struct.anon.4, ptr %this1, i32 0, i32 1
  store i32 0, ptr %flags, align 8
  %stream_write_closed = getelementptr inbounds %struct.anon.4, ptr %this1, i32 0, i32 2
  store i8 0, ptr %stream_write_closed, align 4
  ret void
}

; Function Attrs: mustprogress nounwind uwtable
define linkonce_odr void @_ZN38grpc_transport_stream_op_batch_payloadUt0_C2Ev(ptr noundef nonnull align 8 dereferenceable(16) %this) unnamed_addr #5 comdat align 2 {
entry:
  %this.addr = alloca ptr, align 8
  store ptr %this, ptr %this.addr, align 8
  %this1 = load ptr, ptr %this.addr, align 8
  %send_trailing_metadata = getelementptr inbounds %struct.anon.3, ptr %this1, i32 0, i32 0
  store ptr null, ptr %send_trailing_metadata, align 8
  %sent = getelementptr inbounds %struct.anon.3, ptr %this1, i32 0, i32 1
  store ptr null, ptr %sent, align 8
  ret void
}

; Function Attrs: mustprogress nounwind uwtable
define linkonce_odr void @_ZN38grpc_transport_stream_op_batch_payloadUt_C2Ev(ptr noundef nonnull align 8 dereferenceable(8) %this) unnamed_addr #5 comdat align 2 {
entry:
  %this.addr = alloca ptr, align 8
  store ptr %this, ptr %this.addr, align 8
  %this1 = load ptr, ptr %this.addr, align 8
  %send_initial_metadata = getelementptr inbounds %struct.anon.2, ptr %this1, i32 0, i32 0
  store ptr null, ptr %send_initial_metadata, align 8
  ret void
}

; Function Attrs: mustprogress nounwind uwtable
define linkonce_odr void @_ZN28grpc_handler_private_op_dataC2Ev(ptr noundef nonnull align 8 dereferenceable(40) %this) unnamed_addr #5 comdat align 2 {
entry:
  %this.addr = alloca ptr, align 8
  store ptr %this, ptr %this.addr, align 8
  %this1 = load ptr, ptr %this.addr, align 8
  %extra_arg = getelementptr inbounds %struct.grpc_handler_private_op_data, ptr %this1, i32 0, i32 0
  store ptr null, ptr %extra_arg, align 8
  %closure2 = getelementptr inbounds %struct.grpc_handler_private_op_data, ptr %this1, i32 0, i32 1
  call void @llvm.memset.p0.i64(ptr align 8 %closure2, i8 0, i64 32, i1 false)
  ret void
}

; Function Attrs: mustprogress uwtable
define linkonce_odr void @_ZN38grpc_transport_stream_op_batch_payloadC2EP25grpc_call_context_element(ptr noundef nonnull align 8 dereferenceable(144) %this, ptr noundef %context) unnamed_addr #4 comdat align 2 {
entry:
  %this.addr = alloca ptr, align 8
  %context.addr = alloca ptr, align 8
  store ptr %this, ptr %this.addr, align 8
  store ptr %context, ptr %context.addr, align 8
  %this1 = load ptr, ptr %this.addr, align 8
  %send_initial_metadata = getelementptr inbounds %struct.grpc_transport_stream_op_batch_payload, ptr %this1, i32 0, i32 0
  call void @_ZN38grpc_transport_stream_op_batch_payloadUt_C2Ev(ptr noundef nonnull align 8 dereferenceable(8) %send_initial_metadata) #3
  %send_trailing_metadata = getelementptr inbounds %struct.grpc_transport_stream_op_batch_payload, ptr %this1, i32 0, i32 1
  call void @_ZN38grpc_transport_stream_op_batch_payloadUt0_C2Ev(ptr noundef nonnull align 8 dereferenceable(16) %send_trailing_metadata) #3
  %send_message = getelementptr inbounds %struct.grpc_transport_stream_op_batch_payload, ptr %this1, i32 0, i32 2
  call void @_ZN38grpc_transport_stream_op_batch_payloadUt1_C2Ev(ptr noundef nonnull align 8 dereferenceable(13) %send_message) #3
  %recv_initial_metadata = getelementptr inbounds %struct.grpc_transport_stream_op_batch_payload, ptr %this1, i32 0, i32 3
  call void @_ZN38grpc_transport_stream_op_batch_payloadUt2_C2Ev(ptr noundef nonnull align 8 dereferenceable(24) %recv_initial_metadata) #3
  %recv_message = getelementptr inbounds %struct.grpc_transport_stream_op_batch_payload, ptr %this1, i32 0, i32 4
  call void @_ZN38grpc_transport_stream_op_batch_payloadUt3_C2Ev(ptr noundef nonnull align 8 dereferenceable(32) %recv_message) #3
  %recv_trailing_metadata = getelementptr inbounds %struct.grpc_transport_stream_op_batch_payload, ptr %this1, i32 0, i32 5
  call void @_ZN38grpc_transport_stream_op_batch_payloadUt4_C2Ev(ptr noundef nonnull align 8 dereferenceable(24) %recv_trailing_metadata) #3
  %cancel_stream = getelementptr inbounds %struct.grpc_transport_stream_op_batch_payload, ptr %this1, i32 0, i32 6
  call void @_ZN38grpc_transport_stream_op_batch_payloadUt5_C2Ev(ptr noundef nonnull align 8 dereferenceable(9) %cancel_stream)
  %context2 = getelementptr inbounds %struct.grpc_transport_stream_op_batch_payload, ptr %this1, i32 0, i32 7
  %0 = load ptr, ptr %context.addr, align 8
  store ptr %0, ptr %context2, align 8
  ret void
}

; Function Attrs: mustprogress uwtable
define linkonce_odr void @_ZN30grpc_transport_stream_op_batchC2Ev(ptr noundef nonnull align 8 dereferenceable(64) %this) unnamed_addr #4 comdat align 2 {
entry:
  %this.addr = alloca ptr, align 8
  store ptr %this, ptr %this.addr, align 8
  %this1 = load ptr, ptr %this.addr, align 8
  %on_complete = getelementptr inbounds %struct.grpc_transport_stream_op_batch, ptr %this1, i32 0, i32 0
  store ptr null, ptr %on_complete, align 8
  %payload = getelementptr inbounds %struct.grpc_transport_stream_op_batch, ptr %this1, i32 0, i32 1
  store ptr null, ptr %payload, align 8
  %send_initial_metadata = getelementptr inbounds %struct.grpc_transport_stream_op_batch, ptr %this1, i32 0, i32 2
  %bf.load = load i8, ptr %send_initial_metadata, align 8
  %bf.clear = and i8 %bf.load, -2
  %bf.set = or i8 %bf.clear, 0
  store i8 %bf.set, ptr %send_initial_metadata, align 8
  %send_trailing_metadata = getelementptr inbounds %struct.grpc_transport_stream_op_batch, ptr %this1, i32 0, i32 2
  %bf.load2 = load i8, ptr %send_trailing_metadata, align 8
  %bf.clear3 = and i8 %bf.load2, -3
  %bf.set4 = or i8 %bf.clear3, 0
  store i8 %bf.set4, ptr %send_trailing_metadata, align 8
  %send_message = getelementptr inbounds %struct.grpc_transport_stream_op_batch, ptr %this1, i32 0, i32 2
  %bf.load5 = load i8, ptr %send_message, align 8
  %bf.clear6 = and i8 %bf.load5, -5
  %bf.set7 = or i8 %bf.clear6, 0
  store i8 %bf.set7, ptr %send_message, align 8
  %recv_initial_metadata = getelementptr inbounds %struct.grpc_transport_stream_op_batch, ptr %this1, i32 0, i32 2
  %bf.load8 = load i8, ptr %recv_initial_metadata, align 8
  %bf.clear9 = and i8 %bf.load8, -9
  %bf.set10 = or i8 %bf.clear9, 0
  store i8 %bf.set10, ptr %recv_initial_metadata, align 8
  %recv_message = getelementptr inbounds %struct.grpc_transport_stream_op_batch, ptr %this1, i32 0, i32 2
  %bf.load11 = load i8, ptr %recv_message, align 8
  %bf.clear12 = and i8 %bf.load11, -17
  %bf.set13 = or i8 %bf.clear12, 0
  store i8 %bf.set13, ptr %recv_message, align 8
  %recv_trailing_metadata = getelementptr inbounds %struct.grpc_transport_stream_op_batch, ptr %this1, i32 0, i32 2
  %bf.load14 = load i8, ptr %recv_trailing_metadata, align 8
  %bf.clear15 = and i8 %bf.load14, -33
  %bf.set16 = or i8 %bf.clear15, 0
  store i8 %bf.set16, ptr %recv_trailing_metadata, align 8
  %cancel_stream = getelementptr inbounds %struct.grpc_transport_stream_op_batch, ptr %this1, i32 0, i32 2
  %bf.load17 = load i8, ptr %cancel_stream, align 8
  %bf.clear18 = and i8 %bf.load17, -65
  %bf.set19 = or i8 %bf.clear18, 0
  store i8 %bf.set19, ptr %cancel_stream, align 8
  %is_traced = getelementptr inbounds %struct.grpc_transport_stream_op_batch, ptr %this1, i32 0, i32 2
  %bf.load20 = load i8, ptr %is_traced, align 8
  %bf.clear21 = and i8 %bf.load20, 127
  %bf.set22 = or i8 %bf.clear21, 0
  store i8 %bf.set22, ptr %is_traced, align 8
  %handler_private = getelementptr inbounds %struct.grpc_transport_stream_op_batch, ptr %this1, i32 0, i32 3
  call void @_ZN28grpc_handler_private_op_dataC2Ev(ptr noundef nonnull align 8 dereferenceable(40) %handler_private)
  ret void
}

; Function Attrs: mustprogress nounwind uwtable
define linkonce_odr noundef ptr @_Z17grpc_closure_initP12grpc_closurePFvPvN4absl12lts_202308026StatusEES1_(ptr noundef %closure, ptr noundef %cb, ptr noundef %cb_arg) #5 comdat {
entry:
  %closure.addr = alloca ptr, align 8
  %cb.addr = alloca ptr, align 8
  %cb_arg.addr = alloca ptr, align 8
  store ptr %closure, ptr %closure.addr, align 8
  store ptr %cb, ptr %cb.addr, align 8
  store ptr %cb_arg, ptr %cb_arg.addr, align 8
  %0 = load ptr, ptr %cb.addr, align 8
  %1 = load ptr, ptr %closure.addr, align 8
  %cb1 = getelementptr inbounds %struct.grpc_closure, ptr %1, i32 0, i32 1
  store ptr %0, ptr %cb1, align 8
  %2 = load ptr, ptr %cb_arg.addr, align 8
  %3 = load ptr, ptr %closure.addr, align 8
  %cb_arg2 = getelementptr inbounds %struct.grpc_closure, ptr %3, i32 0, i32 2
  store ptr %2, ptr %cb_arg2, align 8
  %4 = load ptr, ptr %closure.addr, align 8
  %error_data = getelementptr inbounds %struct.grpc_closure, ptr %4, i32 0, i32 3
  store i64 0, ptr %error_data, align 8
  %5 = load ptr, ptr %closure.addr, align 8
  ret ptr %5
}

; Function Attrs: mustprogress uwtable
define linkonce_odr void @_ZN24made_transport_stream_opC2Ev(ptr noundef nonnull align 8 dereferenceable(248) %this) unnamed_addr #4 comdat align 2 {
entry:
  %this.addr = alloca ptr, align 8
  store ptr %this, ptr %this.addr, align 8
  %this1 = load ptr, ptr %this.addr, align 8
  %inner_on_complete = getelementptr inbounds %struct.made_transport_stream_op, ptr %this1, i32 0, i32 1
  store ptr null, ptr %inner_on_complete, align 8
  %op = getelementptr inbounds %struct.made_transport_stream_op, ptr %this1, i32 0, i32 2
  call void @_ZN30grpc_transport_stream_op_batchC2Ev(ptr noundef nonnull align 8 dereferenceable(64) %op)
  %payload = getelementptr inbounds %struct.made_transport_stream_op, ptr %this1, i32 0, i32 3
  call void @_ZN38grpc_transport_stream_op_batch_payloadC2EP25grpc_call_context_element(ptr noundef nonnull align 8 dereferenceable(144) %payload, ptr noundef null)
  ret void
}

; Function Attrs: mustprogress uwtable
define noundef ptr @_Z29grpc_make_transport_stream_opP12grpc_closure(ptr noundef %on_complete) #4 personality ptr @__gxx_personality_v0 {
entry:
  %on_complete.addr = alloca ptr, align 8
  %op = alloca ptr, align 8
  %exn.slot = alloca ptr, align 8
  %ehselector.slot = alloca i32, align 4
  store ptr %on_complete, ptr %on_complete.addr, align 8
  %call = call noalias noundef nonnull ptr @_Znwm(i64 noundef 248) #18
  call void @llvm.memset.p0.i64(ptr align 16 %call, i8 0, i64 248, i1 false)
  invoke void @_ZN24made_transport_stream_opC2Ev(ptr noundef nonnull align 8 dereferenceable(248) %call)
          to label %invoke.cont unwind label %lpad

invoke.cont:                                      ; preds = %entry
  store ptr %call, ptr %op, align 8
  %0 = load ptr, ptr %op, align 8
  %payload = getelementptr inbounds %struct.made_transport_stream_op, ptr %0, i32 0, i32 3
  %1 = load ptr, ptr %op, align 8
  %op1 = getelementptr inbounds %struct.made_transport_stream_op, ptr %1, i32 0, i32 2
  %payload2 = getelementptr inbounds %struct.grpc_transport_stream_op_batch, ptr %op1, i32 0, i32 1
  store ptr %payload, ptr %payload2, align 8
  %2 = load ptr, ptr %op, align 8
  %outer_on_complete = getelementptr inbounds %struct.made_transport_stream_op, ptr %2, i32 0, i32 0
  %3 = load ptr, ptr %op, align 8
  %call3 = call noundef ptr @_Z17grpc_closure_initP12grpc_closurePFvPvN4absl12lts_202308026StatusEES1_(ptr noundef %outer_on_complete, ptr noundef @_ZL32destroy_made_transport_stream_opPvN4absl12lts_202308026StatusE, ptr noundef %3)
  %4 = load ptr, ptr %on_complete.addr, align 8
  %5 = load ptr, ptr %op, align 8
  %inner_on_complete = getelementptr inbounds %struct.made_transport_stream_op, ptr %5, i32 0, i32 1
  store ptr %4, ptr %inner_on_complete, align 8
  %6 = load ptr, ptr %op, align 8
  %outer_on_complete4 = getelementptr inbounds %struct.made_transport_stream_op, ptr %6, i32 0, i32 0
  %7 = load ptr, ptr %op, align 8
  %op5 = getelementptr inbounds %struct.made_transport_stream_op, ptr %7, i32 0, i32 2
  %on_complete6 = getelementptr inbounds %struct.grpc_transport_stream_op_batch, ptr %op5, i32 0, i32 0
  store ptr %outer_on_complete4, ptr %on_complete6, align 8
  %8 = load ptr, ptr %op, align 8
  %op7 = getelementptr inbounds %struct.made_transport_stream_op, ptr %8, i32 0, i32 2
  ret ptr %op7

lpad:                                             ; preds = %entry
  %9 = landingpad { ptr, i32 }
          cleanup
  %10 = extractvalue { ptr, i32 } %9, 0
  store ptr %10, ptr %exn.slot, align 8
  %11 = extractvalue { ptr, i32 } %9, 1
  store i32 %11, ptr %ehselector.slot, align 4
  call void @_ZdlPv(ptr noundef %call) #19
  br label %eh.resume

eh.resume:                                        ; preds = %lpad
  %exn = load ptr, ptr %exn.slot, align 8
  %sel = load i32, ptr %ehselector.slot, align 4
  %lpad.val = insertvalue { ptr, i32 } poison, ptr %exn, 0
  %lpad.val8 = insertvalue { ptr, i32 } %lpad.val, i32 %sel, 1
  resume { ptr, i32 } %lpad.val8
}