; Function Attrs: mustprogress uwtable
define noundef nonnull ptr @_Z29grpc_make_transport_stream_opP12grpc_closure(ptr noundef %on_complete) local_unnamed_addr #5 personality ptr @__gxx_personality_v0 {
invoke.cont:
  %call = tail call noalias noundef nonnull dereferenceable(248) ptr @_Znwm(i64 noundef 248) #26
  %inner_on_complete.i = getelementptr inbounds i8, ptr %call, i64 32
  %payload = getelementptr inbounds i8, ptr %call, i64 104
  %op1 = getelementptr inbounds i8, ptr %call, i64 40
  %payload2 = getelementptr inbounds i8, ptr %call, i64 48
  tail call void @llvm.memset.p0.i64(ptr noundef nonnull align 16 dereferenceable(248) %call, i8 0, i64 248, i1 false)
  store ptr %payload, ptr %payload2, align 8
  %cb1.i = getelementptr inbounds i8, ptr %call, i64 8
  store ptr @_ZL32destroy_made_transport_stream_opPvN4absl12lts_202308026StatusE, ptr %cb1.i, align 8
  %cb_arg2.i = getelementptr inbounds i8, ptr %call, i64 16
  store ptr %call, ptr %cb_arg2.i, align 8
  store ptr %on_complete, ptr %inner_on_complete.i, align 8
  store ptr %call, ptr %op1, align 8
  ret ptr %op1
}